target datalayout = "e-m:e-p270:32:32-p271:32:32-p272:64:64-i64:64-i128:128-f80:128-n8:16:32:64-S128"
target triple = "x86_64-pc-linux-gnu"

%struct.__loadu_ps = type { <4 x float> }
%struct.__storeu_ps = type { <4 x float> }

; Function Attrs: alwaysinline nounwind uwtable
define available_externally <4 x float> @_mm_set1_ps(float noundef %0) #2 {
  %2 = alloca float, align 4
  %3 = alloca <4 x float>, align 16
  store float %0, ptr %2, align 4, !tbaa !29
  %4 = load float, ptr %2, align 4, !tbaa !29
  %5 = insertelement <4 x float> poison, float %4, i32 0
  %6 = load float, ptr %2, align 4, !tbaa !29
  %7 = insertelement <4 x float> %5, float %6, i32 1
  %8 = load float, ptr %2, align 4, !tbaa !29
  %9 = insertelement <4 x float> %7, float %8, i32 2
  %10 = load float, ptr %2, align 4, !tbaa !29
  %11 = insertelement <4 x float> %9, float %10, i32 3
  store <4 x float> %11, ptr %3, align 16, !tbaa !12
  %12 = load <4 x float>, ptr %3, align 16, !tbaa !12
  ret <4 x float> %12
}

; Function Attrs: alwaysinline nounwind uwtable
define available_externally void @_mm_storeu_ps(ptr noundef %0, <4 x float> noundef %1) #2 {
  %3 = alloca ptr, align 8
  %4 = alloca <4 x float>, align 16
  store ptr %0, ptr %3, align 8, !tbaa !21
  store <4 x float> %1, ptr %4, align 16, !tbaa !12
  %5 = load <4 x float>, ptr %4, align 16, !tbaa !12
  %6 = load ptr, ptr %3, align 8, !tbaa !21
  %7 = getelementptr inbounds nuw %struct.__storeu_ps, ptr %6, i32 0, i32 0
  store <4 x float> %5, ptr %7, align 1, !tbaa !12
  ret void
}

; Function Attrs: alwaysinline nounwind uwtable
define available_externally <4 x float> @_mm_mul_ps(<4 x float> noundef %0, <4 x float> noundef %1) #2 {
  %3 = alloca <4 x float>, align 16
  %4 = alloca <4 x float>, align 16
  store <4 x float> %0, ptr %3, align 16, !tbaa !12
  store <4 x float> %1, ptr %4, align 16, !tbaa !12
  %5 = load <4 x float>, ptr %3, align 16, !tbaa !12
  %6 = load <4 x float>, ptr %4, align 16, !tbaa !12
  %7 = fmul <4 x float> %5, %6
  ret <4 x float> %7
}

; Function Attrs: alwaysinline nounwind uwtable
define available_externally <4 x float> @_mm_loadu_ps(ptr noundef %0) #2 {
  %2 = alloca ptr, align 8
  store ptr %0, ptr %2, align 8, !tbaa !21
  %3 = load ptr, ptr %2, align 8, !tbaa !21
  %4 = getelementptr inbounds nuw %struct.__loadu_ps, ptr %3, i32 0, i32 0
  %5 = load <4 x float>, ptr %4, align 1, !tbaa !12
  ret <4 x float> %5
}

; Function Attrs: alwaysinline nounwind uwtable
define available_externally <4 x float> @_mm_set_ps1(float noundef %0) #2 {
  %2 = alloca float, align 4
  store float %0, ptr %2, align 4, !tbaa !29
  %3 = load float, ptr %2, align 4, !tbaa !29
  %4 = call <4 x float> @_mm_set1_ps(float noundef %3)
  ret <4 x float> %4
}

; Function Attrs: nounwind uwtable
define void @stbir__vertical_scatter_with_1_coeffs(ptr noundef %0, ptr noundef %1, ptr noundef %2, ptr noundef %3) #0 {
  %5 = alloca ptr, align 8
  %6 = alloca ptr, align 8
  %7 = alloca ptr, align 8
  %8 = alloca ptr, align 8
  %9 = alloca ptr, align 8
  %10 = alloca float, align 4
  %11 = alloca <4 x float>, align 16
  %12 = alloca <4 x float>, align 16
  %13 = alloca <4 x float>, align 16
  %14 = alloca <4 x float>, align 16
  %15 = alloca <4 x float>, align 16
  %16 = alloca <4 x float>, align 16
  %17 = alloca <4 x float>, align 16
  %18 = alloca <4 x float>, align 16
  %19 = alloca <4 x float>, align 16
  %20 = alloca <4 x float>, align 16
  %21 = alloca <4 x float>, align 16
  %22 = alloca float, align 4
  store ptr %0, ptr %5, align 8, !tbaa !796
  store ptr %1, ptr %6, align 8, !tbaa !21
  store ptr %2, ptr %7, align 8, !tbaa !21
  store ptr %3, ptr %8, align 8, !tbaa !21
  call void @llvm.lifetime.start.p0(i64 8, ptr %9) #12
  %23 = load ptr, ptr %5, align 8, !tbaa !796
  %24 = getelementptr inbounds ptr, ptr %23, i64 0
  %25 = load ptr, ptr %24, align 8, !tbaa !21
  store ptr %25, ptr %9, align 8, !tbaa !21
  call void @llvm.lifetime.start.p0(i64 4, ptr %10) #12
  %26 = load ptr, ptr %6, align 8, !tbaa !21
  %27 = getelementptr inbounds float, ptr %26, i64 0
  %28 = load float, ptr %27, align 4, !tbaa !29
  store float %28, ptr %10, align 4, !tbaa !29
  call void @llvm.lifetime.start.p0(i64 16, ptr %11) #12
  %29 = load float, ptr %10, align 4, !tbaa !29
  %30 = call <4 x float> @_mm_set_ps1(float noundef %29)
  store <4 x float> %30, ptr %11, align 16, !tbaa !12
  br label %31

31:                                               ; preds = %38, %4
  %32 = load ptr, ptr %8, align 8, !tbaa !21
  %33 = load ptr, ptr %7, align 8, !tbaa !21
  %34 = ptrtoint ptr %32 to i64
  %35 = ptrtoint ptr %33 to i64
  %36 = sub i64 %34, %35
  %37 = icmp sge i64 %36, 64
  br i1 %37, label %38, label %78

38:                                               ; preds = %31
  call void @llvm.lifetime.start.p0(i64 16, ptr %12) #12
  call void @llvm.lifetime.start.p0(i64 16, ptr %13) #12
  call void @llvm.lifetime.start.p0(i64 16, ptr %14) #12
  call void @llvm.lifetime.start.p0(i64 16, ptr %15) #12
  call void @llvm.lifetime.start.p0(i64 16, ptr %16) #12
  call void @llvm.lifetime.start.p0(i64 16, ptr %17) #12
  call void @llvm.lifetime.start.p0(i64 16, ptr %18) #12
  call void @llvm.lifetime.start.p0(i64 16, ptr %19) #12
  %39 = load ptr, ptr %9, align 8, !tbaa !21
  call void asm sideeffect "", "r,~{dirflag},~{fpsr},~{flags}"(ptr %39) #12, !srcloc !798
  %40 = load ptr, ptr %7, align 8, !tbaa !21
  %41 = call <4 x float> @_mm_loadu_ps(ptr noundef %40)
  store <4 x float> %41, ptr %16, align 16, !tbaa !12
  %42 = load ptr, ptr %7, align 8, !tbaa !21
  %43 = getelementptr inbounds float, ptr %42, i64 4
  %44 = call <4 x float> @_mm_loadu_ps(ptr noundef %43)
  store <4 x float> %44, ptr %17, align 16, !tbaa !12
  %45 = load ptr, ptr %7, align 8, !tbaa !21
  %46 = getelementptr inbounds float, ptr %45, i64 8
  %47 = call <4 x float> @_mm_loadu_ps(ptr noundef %46)
  store <4 x float> %47, ptr %18, align 16, !tbaa !12
  %48 = load ptr, ptr %7, align 8, !tbaa !21
  %49 = getelementptr inbounds float, ptr %48, i64 12
  %50 = call <4 x float> @_mm_loadu_ps(ptr noundef %49)
  store <4 x float> %50, ptr %19, align 16, !tbaa !12
  %51 = load <4 x float>, ptr %16, align 16, !tbaa !12
  %52 = load <4 x float>, ptr %11, align 16, !tbaa !12
  %53 = call <4 x float> @_mm_mul_ps(<4 x float> noundef %51, <4 x float> noundef %52)
  store <4 x float> %53, ptr %12, align 16, !tbaa !12
  %54 = load <4 x float>, ptr %17, align 16, !tbaa !12
  %55 = load <4 x float>, ptr %11, align 16, !tbaa !12
  %56 = call <4 x float> @_mm_mul_ps(<4 x float> noundef %54, <4 x float> noundef %55)
  store <4 x float> %56, ptr %13, align 16, !tbaa !12
  %57 = load <4 x float>, ptr %18, align 16, !tbaa !12
  %58 = load <4 x float>, ptr %11, align 16, !tbaa !12
  %59 = call <4 x float> @_mm_mul_ps(<4 x float> noundef %57, <4 x float> noundef %58)
  store <4 x float> %59, ptr %14, align 16, !tbaa !12
  %60 = load <4 x float>, ptr %19, align 16, !tbaa !12
  %61 = load <4 x float>, ptr %11, align 16, !tbaa !12
  %62 = call <4 x float> @_mm_mul_ps(<4 x float> noundef %60, <4 x float> noundef %61)
  store <4 x float> %62, ptr %15, align 16, !tbaa !12
  %63 = load ptr, ptr %9, align 8, !tbaa !21
  %64 = load <4 x float>, ptr %12, align 16, !tbaa !12
  call void @_mm_storeu_ps(ptr noundef %63, <4 x float> noundef %64)
  %65 = load ptr, ptr %9, align 8, !tbaa !21
  %66 = getelementptr inbounds float, ptr %65, i64 4
  %67 = load <4 x float>, ptr %13, align 16, !tbaa !12
  call void @_mm_storeu_ps(ptr noundef %66, <4 x float> noundef %67)
  %68 = load ptr, ptr %9, align 8, !tbaa !21
  %69 = getelementptr inbounds float, ptr %68, i64 8
  %70 = load <4 x float>, ptr %14, align 16, !tbaa !12
  call void @_mm_storeu_ps(ptr noundef %69, <4 x float> noundef %70)
  %71 = load ptr, ptr %9, align 8, !tbaa !21
  %72 = getelementptr inbounds float, ptr %71, i64 12
  %73 = load <4 x float>, ptr %15, align 16, !tbaa !12
  call void @_mm_storeu_ps(ptr noundef %72, <4 x float> noundef %73)
  %74 = load ptr, ptr %7, align 8, !tbaa !21
  %75 = getelementptr inbounds float, ptr %74, i64 16
  store ptr %75, ptr %7, align 8, !tbaa !21
  %76 = load ptr, ptr %9, align 8, !tbaa !21
  %77 = getelementptr inbounds float, ptr %76, i64 16
  store ptr %77, ptr %9, align 8, !tbaa !21
  call void @llvm.lifetime.end.p0(i64 16, ptr %19) #12
  call void @llvm.lifetime.end.p0(i64 16, ptr %18) #12
  call void @llvm.lifetime.end.p0(i64 16, ptr %17) #12
  call void @llvm.lifetime.end.p0(i64 16, ptr %16) #12
  call void @llvm.lifetime.end.p0(i64 16, ptr %15) #12
  call void @llvm.lifetime.end.p0(i64 16, ptr %14) #12
  call void @llvm.lifetime.end.p0(i64 16, ptr %13) #12
  call void @llvm.lifetime.end.p0(i64 16, ptr %12) #12
  br label %31, !llvm.loop !799

78:                                               ; preds = %31
  br label %79

79:                                               ; preds = %86, %78
  %80 = load ptr, ptr %8, align 8, !tbaa !21
  %81 = load ptr, ptr %7, align 8, !tbaa !21
  %82 = ptrtoint ptr %80 to i64
  %83 = ptrtoint ptr %81 to i64
  %84 = sub i64 %82, %83
  %85 = icmp sge i64 %84, 16
  br i1 %85, label %86, label %99

86:                                               ; preds = %79
  call void @llvm.lifetime.start.p0(i64 16, ptr %20) #12
  call void @llvm.lifetime.start.p0(i64 16, ptr %21) #12
  %87 = load ptr, ptr %9, align 8, !tbaa !21
  call void asm sideeffect "", "r,~{dirflag},~{fpsr},~{flags}"(ptr %87) #12, !srcloc !800
  %88 = load ptr, ptr %7, align 8, !tbaa !21
  %89 = call <4 x float> @_mm_loadu_ps(ptr noundef %88)
  store <4 x float> %89, ptr %21, align 16, !tbaa !12
  %90 = load <4 x float>, ptr %21, align 16, !tbaa !12
  %91 = load <4 x float>, ptr %11, align 16, !tbaa !12
  %92 = call <4 x float> @_mm_mul_ps(<4 x float> noundef %90, <4 x float> noundef %91)
  store <4 x float> %92, ptr %20, align 16, !tbaa !12
  %93 = load ptr, ptr %9, align 8, !tbaa !21
  %94 = load <4 x float>, ptr %20, align 16, !tbaa !12
  call void @_mm_storeu_ps(ptr noundef %93, <4 x float> noundef %94)
  %95 = load ptr, ptr %7, align 8, !tbaa !21
  %96 = getelementptr inbounds float, ptr %95, i64 4
  store ptr %96, ptr %7, align 8, !tbaa !21
  %97 = load ptr, ptr %9, align 8, !tbaa !21
  %98 = getelementptr inbounds float, ptr %97, i64 4
  store ptr %98, ptr %9, align 8, !tbaa !21
  call void @llvm.lifetime.end.p0(i64 16, ptr %21) #12
  call void @llvm.lifetime.end.p0(i64 16, ptr %20) #12
  br label %79, !llvm.loop !801

99:                                               ; preds = %79
  call void @llvm.lifetime.end.p0(i64 16, ptr %11) #12
  br label %100

100:                                              ; preds = %104, %99
  %101 = load ptr, ptr %7, align 8, !tbaa !21
  %102 = load ptr, ptr %8, align 8, !tbaa !21
  %103 = icmp ult ptr %101, %102
  br i1 %103, label %104, label %118

104:                                              ; preds = %100
  call void @llvm.lifetime.start.p0(i64 4, ptr %22) #12
  %105 = load ptr, ptr %7, align 8, !tbaa !21
  %106 = getelementptr inbounds float, ptr %105, i64 0
  %107 = load float, ptr %106, align 4, !tbaa !29
  store float %107, ptr %22, align 4, !tbaa !29
  %108 = load ptr, ptr %9, align 8, !tbaa !21
  call void asm sideeffect "", "r,~{dirflag},~{fpsr},~{flags}"(ptr %108) #12, !srcloc !802
  %109 = load float, ptr %22, align 4, !tbaa !29
  %110 = load float, ptr %10, align 4, !tbaa !29
  %111 = fmul float %109, %110
  %112 = load ptr, ptr %9, align 8, !tbaa !21
  %113 = getelementptr inbounds float, ptr %112, i64 0
  store float %111, ptr %113, align 4, !tbaa !29
  %114 = load ptr, ptr %7, align 8, !tbaa !21
  %115 = getelementptr inbounds nuw float, ptr %114, i32 1
  store ptr %115, ptr %7, align 8, !tbaa !21
  %116 = load ptr, ptr %9, align 8, !tbaa !21
  %117 = getelementptr inbounds nuw float, ptr %116, i32 1
  store ptr %117, ptr %9, align 8, !tbaa !21
  call void @llvm.lifetime.end.p0(i64 4, ptr %22) #12
  br label %100, !llvm.loop !803

118:                                              ; preds = %100
  call void @llvm.lifetime.end.p0(i64 4, ptr %10) #12
  call void @llvm.lifetime.end.p0(i64 8, ptr %9) #12
  ret void
}