; Function Attrs: nounwind uwtable
define void @stbir__vertical_scatter_with_1_coeffs(ptr noundef readonly captures(none) %0, ptr noundef readonly captures(none) %1, ptr noundef %2, ptr noundef %3) #0 {
  %5 = load ptr, ptr %0, align 8, !tbaa !707
  %6 = load float, ptr %1, align 4, !tbaa !50
  %7 = insertelement <4 x float> poison, float %6, i64 0
  %8 = shufflevector <4 x float> %7, <4 x float> poison, <4 x i32> zeroinitializer
  %9 = ptrtoint ptr %3 to i64
  %10 = ptrtoint ptr %2 to i64
  %11 = sub i64 %9, %10
  %12 = icmp sgt i64 %11, 63
  br i1 %12, label %.lr.ph, label %.preheader49

.preheader49:                                     ; preds = %.lr.ph, %4
  %.pre-phi65 = phi i64 [ %11, %4 ], [ %31, %.lr.ph ]
  %.046.lcssa = phi ptr [ %5, %4 ], [ %29, %.lr.ph ]
  %.0.lcssa = phi ptr [ %2, %4 ], [ %28, %.lr.ph ]
  %13 = icmp sgt i64 %.pre-phi65, 15
  br i1 %13, label %.lr.ph56, label %.preheader

.lr.ph:                                           ; preds = %4, %.lr.ph
  %.051 = phi ptr [ %28, %.lr.ph ], [ %2, %4 ]
  %.04650 = phi ptr [ %29, %.lr.ph ], [ %5, %4 ]
  tail call void asm sideeffect "", "r,~{dirflag},~{fpsr},~{flags}"(ptr %.04650) #24, !srcloc !708
  %14 = load <4 x float>, ptr %.051, align 1, !tbaa !4
  %15 = getelementptr inbounds nuw i8, ptr %.051, i64 16
  %16 = load <4 x float>, ptr %15, align 1, !tbaa !4
  %17 = getelementptr inbounds nuw i8, ptr %.051, i64 32
  %18 = load <4 x float>, ptr %17, align 1, !tbaa !4
  %19 = getelementptr inbounds nuw i8, ptr %.051, i64 48
  %20 = load <4 x float>, ptr %19, align 1, !tbaa !4
  %21 = fmul <4 x float> %8, %14
  %22 = fmul <4 x float> %8, %16
  %23 = fmul <4 x float> %8, %18
  %24 = fmul <4 x float> %8, %20
  store <4 x float> %21, ptr %.04650, align 1, !tbaa !4
  %25 = getelementptr inbounds nuw i8, ptr %.04650, i64 16
  store <4 x float> %22, ptr %25, align 1, !tbaa !4
  %26 = getelementptr inbounds nuw i8, ptr %.04650, i64 32
  store <4 x float> %23, ptr %26, align 1, !tbaa !4
  %27 = getelementptr inbounds nuw i8, ptr %.04650, i64 48
  store <4 x float> %24, ptr %27, align 1, !tbaa !4
  %28 = getelementptr inbounds nuw i8, ptr %.051, i64 64
  %29 = getelementptr inbounds nuw i8, ptr %.04650, i64 64
  %30 = ptrtoint ptr %28 to i64
  %31 = sub i64 %9, %30
  %32 = icmp sgt i64 %31, 63
  br i1 %32, label %.lr.ph, label %.preheader49, !llvm.loop !709

.preheader:                                       ; preds = %.lr.ph56, %.preheader49
  %.147.lcssa = phi ptr [ %.046.lcssa, %.preheader49 ], [ %37, %.lr.ph56 ]
  %.1.lcssa = phi ptr [ %.0.lcssa, %.preheader49 ], [ %36, %.lr.ph56 ]
  %33 = icmp ult ptr %.1.lcssa, %3
  br i1 %33, label %.lr.ph61, label %._crit_edge

.lr.ph56:                                         ; preds = %.preheader49, %.lr.ph56
  %.155 = phi ptr [ %36, %.lr.ph56 ], [ %.0.lcssa, %.preheader49 ]
  %.14754 = phi ptr [ %37, %.lr.ph56 ], [ %.046.lcssa, %.preheader49 ]
  tail call void asm sideeffect "", "r,~{dirflag},~{fpsr},~{flags}"(ptr %.14754) #24, !srcloc !710
  %34 = load <4 x float>, ptr %.155, align 1, !tbaa !4
  %35 = fmul <4 x float> %8, %34
  store <4 x float> %35, ptr %.14754, align 1, !tbaa !4
  %36 = getelementptr inbounds nuw i8, ptr %.155, i64 16
  %37 = getelementptr inbounds nuw i8, ptr %.14754, i64 16
  %38 = ptrtoint ptr %36 to i64
  %39 = sub i64 %9, %38
  %40 = icmp sgt i64 %39, 15
  br i1 %40, label %.lr.ph56, label %.preheader, !llvm.loop !711

.lr.ph61:                                         ; preds = %.preheader, %.lr.ph61
  %.260 = phi ptr [ %43, %.lr.ph61 ], [ %.1.lcssa, %.preheader ]
  %.24859 = phi ptr [ %44, %.lr.ph61 ], [ %.147.lcssa, %.preheader ]
  %41 = load float, ptr %.260, align 4, !tbaa !50
  tail call void asm sideeffect "", "r,~{dirflag},~{fpsr},~{flags}"(ptr %.24859) #24, !srcloc !712
  %42 = fmul float %6, %41
  store float %42, ptr %.24859, align 4, !tbaa !50
  %43 = getelementptr inbounds nuw i8, ptr %.260, i64 4
  %44 = getelementptr inbounds nuw i8, ptr %.24859, i64 4
  %45 = icmp ult ptr %43, %3
  br i1 %45, label %.lr.ph61, label %._crit_edge, !llvm.loop !713

._crit_edge:                                      ; preds = %.lr.ph61, %.preheader
  ret void
}